target datalayout = "e-m:e-p270:32:32-p271:32:32-p272:64:64-i64:64-i128:128-f80:128-n8:16:32:64-S128"
target triple = "x86_64-pc-linux-gnu"

%struct.dt_pthread_mutex_t = type { %union.pthread_mutex_t }
%union.pthread_mutex_t = type { %struct.__pthread_mutex_s }
%struct.__pthread_mutex_s = type { i32, i32, i32, i32, i32, i16, i16, %struct.__pthread_internal_list }
%struct.__pthread_internal_list = type { ptr, ptr }
%struct.dt_iop_module_t = type { i32, ptr, ptr, ptr, ptr, ptr, ptr, ptr, ptr, ptr, ptr, ptr, ptr, ptr, ptr, ptr, ptr, ptr, ptr, ptr, ptr, ptr, ptr, ptr, ptr, ptr, ptr, ptr, ptr, ptr, ptr, ptr, ptr, ptr, ptr, ptr, ptr, ptr, ptr, ptr, ptr, ptr, ptr, ptr, ptr, ptr, ptr, ptr, ptr, ptr, ptr, ptr, ptr, ptr, ptr, ptr, ptr, [20 x i8], i32, i32, i32, i32, i32, i32, i32, [8 x i8], [4 x float], [4 x float], [4 x float], [4 x float], [4 x float], [4 x float], ptr, %struct.dt_dev_histogram_stats_t, [4 x i32], i32, i32, ptr, i32, i32, ptr, ptr, i32, ptr, %struct.dt_pthread_mutex_t, ptr, ptr, ptr, ptr, %struct.anon, ptr, ptr, ptr, ptr, ptr, ptr, ptr, i32, ptr, ptr, ptr, ptr, ptr, ptr, ptr, i32, ptr, i32, [128 x i8], i32, ptr, ptr, i32, [12 x i8] }
%struct.dt_dev_histogram_stats_t = type { i32, i64, i32, i32 }
%struct.anon = type { %struct.anon.0, %struct.anon.1 }
%struct.anon.0 = type { ptr, ptr }
%struct.anon.1 = type { ptr, i32 }
%struct.dt_iop_gui_blend_data_t = type { i32, i32, i32, i32, i32, i32, i32, ptr, ptr, ptr, ptr, ptr, ptr, ptr, ptr, ptr, ptr, ptr, ptr, ptr, [2 x %struct.dt_iop_gui_blendif_filter_t], ptr, ptr, ptr, ptr, ptr, ptr, ptr, ptr, ptr, ptr, ptr, ptr, i32, i32, ptr, i32, [8 x [2 x i32]], i32, i32, ptr, i32, ptr, ptr, ptr, [5 x ptr], [5 x i32], ptr, ptr, ptr, i32, ptr, ptr, i32, %struct.dt_pthread_mutex_t }
%struct.dt_iop_gui_blendif_filter_t = type { ptr, ptr, [4 x ptr], ptr, ptr, ptr }

@.str.48 = private unnamed_addr constant [12 x i8] c"raster mask\00", align 1
@.str.105 = private unnamed_addr constant [6 x i8] c"blend\00", align 1
@.str.116 = private unnamed_addr constant [19 x i8] c"dt_ignore_fg_state\00", align 1
@.str.124 = private unnamed_addr constant [14 x i8] c"value-changed\00", align 1
@.str.129 = private unnamed_addr constant [8 x i8] c"toggled\00", align 1
@.str.137 = private unnamed_addr constant [13 x i8] c"no mask used\00", align 1
@.str.153 = private unnamed_addr constant [13 x i8] c"masks_raster\00", align 1
@.str.154 = private unnamed_addr constant [31 x i8] c"toggle polarity of raster mask\00", align 1

; Function Attrs: nounwind uwtable
define void @dt_iop_gui_init_raster(ptr noundef %0, ptr noundef %1) #0 {
  %3 = alloca ptr, align 8
  %4 = alloca ptr, align 8
  %5 = alloca ptr, align 8
  %6 = alloca ptr, align 8
  store ptr %0, ptr %3, align 8, !tbaa !11
  store ptr %1, ptr %4, align 8, !tbaa !6
  call void @llvm.lifetime.start.p0(i64 8, ptr %5) #11
  %7 = load ptr, ptr %4, align 8, !tbaa !6
  %8 = getelementptr inbounds nuw %struct.dt_iop_module_t, ptr %7, i32 0, i32 88
  %9 = load ptr, ptr %8, align 8, !tbaa !15
  store ptr %9, ptr %5, align 8, !tbaa !31
  %10 = call ptr @gtk_box_new(i32 noundef 1, i32 noundef 0)
  %11 = call i64 @gtk_box_get_type() #12
  %12 = call ptr @g_type_check_instance_cast(ptr noundef %10, i64 noundef %11)
  %13 = load ptr, ptr %5, align 8, !tbaa !31
  %14 = getelementptr inbounds nuw %struct.dt_iop_gui_blend_data_t, ptr %13, i32 0, i32 16
  store ptr %12, ptr %14, align 8, !tbaa !236
  %15 = load ptr, ptr %3, align 8, !tbaa !11
  %16 = load ptr, ptr %5, align 8, !tbaa !31
  %17 = getelementptr inbounds nuw %struct.dt_iop_gui_blend_data_t, ptr %16, i32 0, i32 16
  %18 = load ptr, ptr %17, align 8, !tbaa !236
  call void @_add_wrapped_box(ptr noundef %15, ptr noundef %18, ptr noundef @.str.153)
  %19 = load ptr, ptr %5, align 8, !tbaa !31
  %20 = getelementptr inbounds nuw %struct.dt_iop_gui_blend_data_t, ptr %19, i32 0, i32 3
  %21 = load i32, ptr %20, align 4, !tbaa !190
  %22 = icmp ne i32 %21, 0
  br i1 %22, label %23, label %89

23:                                               ; preds = %2
  call void @llvm.lifetime.start.p0(i64 8, ptr %6) #11
  %24 = call ptr @gtk_box_new(i32 noundef 0, i32 noundef 0)
  store ptr %24, ptr %6, align 8, !tbaa !11
  %25 = load ptr, ptr %4, align 8, !tbaa !6
  %26 = call ptr @dt_bauhaus_combobox_new(ptr noundef %25)
  %27 = load ptr, ptr %5, align 8, !tbaa !31
  %28 = getelementptr inbounds nuw %struct.dt_iop_gui_blend_data_t, ptr %27, i32 0, i32 51
  store ptr %26, ptr %28, align 8, !tbaa !221
  %29 = load ptr, ptr %5, align 8, !tbaa !31
  %30 = getelementptr inbounds nuw %struct.dt_iop_gui_blend_data_t, ptr %29, i32 0, i32 51
  %31 = load ptr, ptr %30, align 8, !tbaa !221
  %32 = call ptr @dt_bauhaus_widget_set_label(ptr noundef %31, ptr noundef @.str.105, ptr noundef @.str.48)
  %33 = load ptr, ptr %5, align 8, !tbaa !31
  %34 = getelementptr inbounds nuw %struct.dt_iop_gui_blend_data_t, ptr %33, i32 0, i32 51
  %35 = load ptr, ptr %34, align 8, !tbaa !221
  %36 = call ptr @dcgettext(ptr noundef null, ptr noundef @.str.137, i32 noundef 5) #11
  call void @dt_bauhaus_combobox_add(ptr noundef %35, ptr noundef %36)
  %37 = load ptr, ptr %5, align 8, !tbaa !31
  %38 = getelementptr inbounds nuw %struct.dt_iop_gui_blend_data_t, ptr %37, i32 0, i32 51
  %39 = load ptr, ptr %38, align 8, !tbaa !221
  %40 = call ptr @g_type_check_instance_cast(ptr noundef %39, i64 noundef 80)
  %41 = load ptr, ptr %4, align 8, !tbaa !6
  %42 = call i64 @g_signal_connect_data(ptr noundef %40, ptr noundef @.str.124, ptr noundef @_raster_value_changed_callback, ptr noundef %41, ptr noundef null, i32 noundef 0)
  %43 = load ptr, ptr %5, align 8, !tbaa !31
  %44 = getelementptr inbounds nuw %struct.dt_iop_gui_blend_data_t, ptr %43, i32 0, i32 51
  %45 = load ptr, ptr %44, align 8, !tbaa !221
  call void @dt_bauhaus_combobox_add_populate_fct(ptr noundef %45, ptr noundef @_raster_combo_populate)
  %46 = load ptr, ptr %6, align 8, !tbaa !11
  %47 = call i64 @gtk_box_get_type() #12
  %48 = call ptr @g_type_check_instance_cast(ptr noundef %46, i64 noundef %47)
  %49 = load ptr, ptr %5, align 8, !tbaa !31
  %50 = getelementptr inbounds nuw %struct.dt_iop_gui_blend_data_t, ptr %49, i32 0, i32 51
  %51 = load ptr, ptr %50, align 8, !tbaa !221
  call void @gtk_box_pack_start(ptr noundef %48, ptr noundef %51, i32 noundef 1, i32 noundef 1, i32 noundef 0)
  %52 = call ptr @dtgtk_togglebutton_new(ptr noundef @dtgtk_cairo_paint_plusminus, i32 noundef 0, ptr noundef null)
  %53 = load ptr, ptr %5, align 8, !tbaa !31
  %54 = getelementptr inbounds nuw %struct.dt_iop_gui_blend_data_t, ptr %53, i32 0, i32 52
  store ptr %52, ptr %54, align 8, !tbaa !219
  %55 = load ptr, ptr %5, align 8, !tbaa !31
  %56 = getelementptr inbounds nuw %struct.dt_iop_gui_blend_data_t, ptr %55, i32 0, i32 52
  %57 = load ptr, ptr %56, align 8, !tbaa !219
  call void @dt_gui_add_class(ptr noundef %57, ptr noundef @.str.116)
  %58 = load ptr, ptr %5, align 8, !tbaa !31
  %59 = getelementptr inbounds nuw %struct.dt_iop_gui_blend_data_t, ptr %58, i32 0, i32 52
  %60 = load ptr, ptr %59, align 8, !tbaa !219
  %61 = call ptr @dcgettext(ptr noundef null, ptr noundef @.str.154, i32 noundef 5) #11
  call void @gtk_widget_set_tooltip_text(ptr noundef %60, ptr noundef %61)
  %62 = load ptr, ptr %5, align 8, !tbaa !31
  %63 = getelementptr inbounds nuw %struct.dt_iop_gui_blend_data_t, ptr %62, i32 0, i32 52
  %64 = load ptr, ptr %63, align 8, !tbaa !219
  %65 = call ptr @g_type_check_instance_cast(ptr noundef %64, i64 noundef 80)
  %66 = load ptr, ptr %4, align 8, !tbaa !6
  %67 = call i64 @g_signal_connect_data(ptr noundef %65, ptr noundef @.str.129, ptr noundef @_raster_polarity_callback, ptr noundef %66, ptr noundef null, i32 noundef 0)
  %68 = load ptr, ptr %5, align 8, !tbaa !31
  %69 = getelementptr inbounds nuw %struct.dt_iop_gui_blend_data_t, ptr %68, i32 0, i32 52
  %70 = load ptr, ptr %69, align 8, !tbaa !219
  %71 = call i64 @gtk_toggle_button_get_type() #12
  %72 = call ptr @g_type_check_instance_cast(ptr noundef %70, i64 noundef %71)
  call void @gtk_toggle_button_set_active(ptr noundef %72, i32 noundef 0)
  %73 = load ptr, ptr %6, align 8, !tbaa !11
  %74 = call i64 @gtk_box_get_type() #12
  %75 = call ptr @g_type_check_instance_cast(ptr noundef %73, i64 noundef %74)
  %76 = load ptr, ptr %5, align 8, !tbaa !31
  %77 = getelementptr inbounds nuw %struct.dt_iop_gui_blend_data_t, ptr %76, i32 0, i32 52
  %78 = load ptr, ptr %77, align 8, !tbaa !219
  call void @gtk_box_pack_start(ptr noundef %75, ptr noundef %78, i32 noundef 0, i32 noundef 0, i32 noundef 0)
  %79 = load ptr, ptr %5, align 8, !tbaa !31
  %80 = getelementptr inbounds nuw %struct.dt_iop_gui_blend_data_t, ptr %79, i32 0, i32 16
  %81 = load ptr, ptr %80, align 8, !tbaa !236
  %82 = call i64 @gtk_box_get_type() #12
  %83 = call ptr @g_type_check_instance_cast(ptr noundef %81, i64 noundef %82)
  %84 = load ptr, ptr %6, align 8, !tbaa !11
  %85 = call i64 @gtk_widget_get_type() #12
  %86 = call ptr @g_type_check_instance_cast(ptr noundef %84, i64 noundef %85)
  call void @gtk_box_pack_start(ptr noundef %83, ptr noundef %86, i32 noundef 1, i32 noundef 1, i32 noundef 0)
  %87 = load ptr, ptr %5, align 8, !tbaa !31
  %88 = getelementptr inbounds nuw %struct.dt_iop_gui_blend_data_t, ptr %87, i32 0, i32 5
  store i32 1, ptr %88, align 4, !tbaa !218
  call void @llvm.lifetime.end.p0(i64 8, ptr %6) #11
  br label %89

89:                                               ; preds = %23, %2
  call void @llvm.lifetime.end.p0(i64 8, ptr %5) #11
  ret void
}