; Function Attrs: nounwind uwtable
define void @dt_iop_gui_init_raster(ptr noundef %0, ptr noundef %1) local_unnamed_addr #0 {
  %3 = getelementptr inbounds nuw i8, ptr %1, i64 776
  %4 = load ptr, ptr %3, align 8, !tbaa !6
  %5 = tail call ptr @gtk_box_new(i32 noundef 1, i32 noundef 0) #18
  %6 = tail call i64 @gtk_box_get_type() #19
  %7 = tail call ptr @g_type_check_instance_cast(ptr noundef %5, i64 noundef %6) #18
  %8 = getelementptr inbounds nuw i8, ptr %4, i64 104
  store ptr %7, ptr %8, align 8, !tbaa !204
  tail call fastcc void @_add_wrapped_box(ptr noundef %0, ptr noundef %7, ptr noundef nonnull @.str.153)
  %9 = getelementptr inbounds nuw i8, ptr %4, i64 12
  %10 = load i32, ptr %9, align 4, !tbaa !162
  %.not = icmp eq i32 %10, 0
  br i1 %.not, label %41, label %11

11:                                               ; preds = %2
  %12 = tail call ptr @gtk_box_new(i32 noundef 0, i32 noundef 0) #18
  %13 = tail call ptr @dt_bauhaus_combobox_new(ptr noundef nonnull %1) #18
  %14 = getelementptr inbounds nuw i8, ptr %4, i64 608
  store ptr %13, ptr %14, align 8, !tbaa !194
  %15 = tail call ptr @dt_bauhaus_widget_set_label(ptr noundef %13, ptr noundef nonnull @.str.105, ptr noundef nonnull @.str.48) #18
  %16 = load ptr, ptr %14, align 8, !tbaa !194
  %17 = tail call ptr @dcgettext(ptr noundef null, ptr noundef nonnull @.str.137, i32 noundef 5) #18
  tail call void @dt_bauhaus_combobox_add(ptr noundef %16, ptr noundef %17) #18
  %18 = load ptr, ptr %14, align 8, !tbaa !194
  %19 = tail call ptr @g_type_check_instance_cast(ptr noundef %18, i64 noundef 80) #18
  %20 = tail call i64 @g_signal_connect_data(ptr noundef %19, ptr noundef nonnull @.str.124, ptr noundef nonnull @_raster_value_changed_callback, ptr noundef nonnull %1, ptr noundef null, i32 noundef 0) #18
  %21 = load ptr, ptr %14, align 8, !tbaa !194
  tail call void @dt_bauhaus_combobox_add_populate_fct(ptr noundef %21, ptr noundef nonnull @_raster_combo_populate) #18
  %22 = tail call ptr @g_type_check_instance_cast(ptr noundef %12, i64 noundef %6) #18
  %23 = load ptr, ptr %14, align 8, !tbaa !194
  tail call void @gtk_box_pack_start(ptr noundef %22, ptr noundef %23, i32 noundef 1, i32 noundef 1, i32 noundef 0) #18
  %24 = tail call ptr @dtgtk_togglebutton_new(ptr noundef nonnull @dtgtk_cairo_paint_plusminus, i32 noundef 0, ptr noundef null) #18
  %25 = getelementptr inbounds nuw i8, ptr %4, i64 616
  store ptr %24, ptr %25, align 8, !tbaa !192
  tail call void @dt_gui_add_class(ptr noundef %24, ptr noundef nonnull @.str.116) #18
  %26 = load ptr, ptr %25, align 8, !tbaa !192
  %27 = tail call ptr @dcgettext(ptr noundef null, ptr noundef nonnull @.str.154, i32 noundef 5) #18
  tail call void @gtk_widget_set_tooltip_text(ptr noundef %26, ptr noundef %27) #18
  %28 = load ptr, ptr %25, align 8, !tbaa !192
  %29 = tail call ptr @g_type_check_instance_cast(ptr noundef %28, i64 noundef 80) #18
  %30 = tail call i64 @g_signal_connect_data(ptr noundef %29, ptr noundef nonnull @.str.129, ptr noundef nonnull @_raster_polarity_callback, ptr noundef nonnull %1, ptr noundef null, i32 noundef 0) #18
  %31 = load ptr, ptr %25, align 8, !tbaa !192
  %32 = tail call i64 @gtk_toggle_button_get_type() #19
  %33 = tail call ptr @g_type_check_instance_cast(ptr noundef %31, i64 noundef %32) #18
  tail call void @gtk_toggle_button_set_active(ptr noundef %33, i32 noundef 0) #18
  %34 = tail call ptr @g_type_check_instance_cast(ptr noundef %12, i64 noundef %6) #18
  %35 = load ptr, ptr %25, align 8, !tbaa !192
  tail call void @gtk_box_pack_start(ptr noundef %34, ptr noundef %35, i32 noundef 0, i32 noundef 0, i32 noundef 0) #18
  %36 = load ptr, ptr %8, align 8, !tbaa !204
  %37 = tail call ptr @g_type_check_instance_cast(ptr noundef %36, i64 noundef %6) #18
  %38 = tail call i64 @gtk_widget_get_type() #19
  %39 = tail call ptr @g_type_check_instance_cast(ptr noundef %12, i64 noundef %38) #18
  tail call void @gtk_box_pack_start(ptr noundef %37, ptr noundef %39, i32 noundef 1, i32 noundef 1, i32 noundef 0) #18
  %40 = getelementptr inbounds nuw i8, ptr %4, i64 20
  store i32 1, ptr %40, align 4, !tbaa !191
  br label %41

41:                                               ; preds = %11, %2
  ret void
}